; Function Attrs: nounwind uwtable
define dso_local noundef ptr @onig_node_new_str(ptr noundef %0, ptr noundef %1) local_unnamed_addr #2 {
  %calloc.i.i = tail call noalias noundef dereferenceable_or_null(72) ptr @calloc(i64 1, i64 72)
  %3 = icmp eq ptr %calloc.i.i, null
  br i1 %3, label %node_new_str.exit, label %4

4:                                                ; preds = %2
  %5 = getelementptr inbounds nuw i8, ptr %calloc.i.i, i64 36
  %6 = getelementptr inbounds nuw i8, ptr %calloc.i.i, i64 16
  store ptr %5, ptr %6, align 8, !tbaa !10
  %7 = getelementptr inbounds nuw i8, ptr %calloc.i.i, i64 24
  store ptr %5, ptr %7, align 8, !tbaa !10
  %8 = tail call range(i32 -5, 1) i32 @onig_node_str_cat(ptr noundef nonnull %calloc.i.i, ptr noundef %0, ptr noundef %1)
  %.not.i = icmp eq i32 %8, 0
  br i1 %.not.i, label %node_new_str.exit, label %onig_node_free.exit.i

onig_node_free.exit.i:                            ; preds = %4
  tail call fastcc void @node_free_body(ptr noundef nonnull %calloc.i.i)
  tail call void @free(ptr noundef nonnull %calloc.i.i) #24
  br label %node_new_str.exit

node_new_str.exit:                                ; preds = %2, %4, %onig_node_free.exit.i
  %.0.i = phi ptr [ null, %onig_node_free.exit.i ], [ null, %2 ], [ %calloc.i.i, %4 ]
  ret ptr %.0.i
}